((dp0
S'game-icf'
p1
S''
p2
sS'dist'
p3
NsS'module_path_append'
p4
NsS'global_path'
p5
S'c:\\marmalade\\marmalade-projects\\monsterhome\\extensions'
p6
sS'system_path'
p7
S'c:\\marmalade\\6.0\\s3e\\makefile_builder'
p8
sS'use_prebuilt'
p9
NsS'amd64'
p10
NsS'debug'
p11
NsS'open_with_wmlaunchpad'
p12
I01
sS'disable-runtime-checks'
p13
NsS'no-make'
p14
NsS'optimise-size'
p15
NsS'line-width'
p16
I80
sS'output-name-debug'
p17
S'lib/win32/AdmobAds_d.dll'
p18
sS'arm-fpu'
p19
g2
sS'psp'
p20
NsS'rvct-version'
p21
S'none'
p22
sS'compiler'
p23
g2
sS'execute'
p24
NsS'compile-static'
p25
NsS'msvc-project'
p26
NsS'buildenv'
p27
g2
sS'release'
p28
NsS'module_path'
p29
NsS'using_perforce'
p30
I00
sS'shared-arm-lib'
p31
NsS'arm-cpu'
p32
g2
sS'compile-thumb'
p33
NsS'no-ide'
p34
NsS'msvc-version'
p35
S'6.0'
p36
sS'arm'
p37
NsS'builddir'
p38
g2
sS'compile-debug-as-release'
p39
I0
sS'brief'
p40
NsS'dll'
p41
I1
sS'version'
p42
NsS'ccache'
p43
I0
sS'offline'
p44
NsS'ios-version'
p45
g2
sS'linkflags'
p46
NsS'quick'
p47
NsS'done_defaults'
p48
I1
sS'path'
p49
NsS's3e-data-dir'
p50
g2
sS'enable-exceptions'
p51
NsS'osx-dll'
p52
NsS'extension'
p53
g2
sS'no-vc6'
p54
NsS'non-interactive'
p55
NsS'win32-console'
p56
NsS'nds'
p57
NsS'dist-format'
p58
g2
sS's3e-force-arch'
p59
NsS'dump_defines'
p60
NsS'verbose'
p61
I0
sS'psp-minis'
p62
NsS'gcc-version'
p63
g2
sS'arm-debugger'
p64
g2
sS'use_temp_extension'
p65
NsS'log'
p66
NsS'no-strip'
p67
NsS'rebuild'
p68
NsS'win32-simulator-dll'
p69
NsS'strict'
p70
NsS'enable-global-path'
p71
NsS'iphone'
p72
NsS'cflags'
p73
NsS'dist-dir'
p74
g2
sS'jflags'
p75
NsS'external-compiler'
p76
NsS'no-distcc'
p77
NsS'preinclude'
p78
NsS'using_sdk'
p79
I01
sS'nologo'
p80
NsS'warn-level'
p81
I2
sS'mkb_in'
p82
S'C:/Marmalade/Marmalade-Projects/MonsterHome/extensions/AdmobAds/AdmobAds_windows.mkb'
p83
sS'list-targets'
p84
NsS'distcc'
p85
NsS'default-buildenv'
p86
S'VC10'
p87
sS'preprocess-java'
p88
NsS'defines'
p89
NsS'lib'
p90
NsS'global_argv'
p91
(lp92
S'C:\\Marmalade\\6.0\\s3e\\makefile_builder\\mkb.py'
p93
aS'--open-with-wmlaunchpad'
p94
aS'C:\\Marmalade\\Marmalade-Projects\\MonsterHome\\extensions\\AdmobAds\\AdmobAds_windows.mkb'
p95
asS'make'
p96
NsS'optimise-speed'
p97
NsS'internal'
p98
NsS'enable-stdinc'
p99
NsS'deploy-only'
p100
NsS'x86'
p101
I1
sS'deploy'
p102
g2
sS'mips'
p103
NsS'incredibuild'
p104
NsS'strict-compile'
p105
NsS'use-auto-subdirs'
p106
NsS'app-icf'
p107
g2
sS'deployargs'
p108
NsS'mkf_in'
p109
(lp110
S'c:\\marmalade\\marmalade-projects\\monsterhome\\extensions\\admobads\\admobads_build.mkf'
p111
aS'c:\\marmalade\\6.0\\s3e\\edk\\edk.mkf'
p112
asS'strict-mkb'
p113
NsS'executeargs'
p114
NsS'clean'
p115
NsS'no-asm'
p116
NsS'output-name'
p117
S'lib/win32/AdmobAds.dll'
p118
sS'no-modules'
p119
NsS'find_define'
p120
g2
s(dp121
S'c:\\marmalade\\6.0\\s3e\\makefile_builder\\templates\\vc7_suo.pyc'
p122
F1336578172.0
sS'c:\\marmalade\\6.0\\s3e\\makefile_builder\\mkb_util.pyc'
p123
F1336578172.0
sS'c:\\marmalade\\6.0\\s3e\\makefile_builder\\templates\\vc8_user.pyc'
p124
F1336578172.0
sS'c:\\marmalade\\6.0\\s3e\\makefile_builder\\docs\\deprecated.options.txt'
p125
F1336522716.0
sS'c:\\marmalade\\6.0\\s3e\\makefile_builder\\plugins\\MakeEmitter.pyc'
p126
F1336578172.0
sS'c:\\marmalade\\6.0\\s3e\\makefile_builder\\templates\\win32_dsp.pyc'
p127
F1336578172.0
sS'c:\\marmalade\\6.0\\s3e\\makefile_builder\\plugins\\S3EEmitter.pyc'
p128
F1336578172.0
sS'c:\\marmalade\\6.0\\s3e\\makefile_builder\\docs\\deprecated.defines.txt'
p129
F1336522716.0
sS'c:\\marmalade\\6.0\\s3e\\makefile_builder\\templates'
p130
F1338820689.1573274
sS'c:\\marmalade\\6.0\\s3e\\makefile_builder\\plugins\\s3e_web.pyc'
p131
F1336578172.0
sS'c:\\marmalade\\6.0\\s3e\\makefile_builder\\plugins\\XcodeEmitter.pyc'
p132
F1338820781.1495891
sS'c:\\marmalade\\6.0\\s3e\\makefile_builder\\mkb.py'
p133
F1336522716.0
sS'c:\\marmalade\\6.0\\s3e\\makefile_builder\\plugins\\osx_scons.pyc'
p134
F1336578172.0
sS'c:\\marmalade\\6.0\\s3e\\makefile_builder\\plugins\\null.pyc'
p135
F1336578172.0
sS'c:\\marmalade\\6.0\\s3e\\makefile_builder\\plugins\\SConsEmitter.pyc'
p136
F1336578172.0
sS'c:\\marmalade\\6.0\\s3e\\makefile_builder\\plugins\\s3e_qmake.py'
p137
F1336522718.0
sS'c:\\marmalade\\6.0\\s3e\\makefile_builder\\templates\\rvct_linker_script'
p138
F1336522718.0
sS'c:\\marmalade\\6.0\\s3e\\makefile_builder\\templates\\template.suo'
p139
F1336522718.0
sS'c:\\marmalade\\6.0\\s3e\\makefile_builder\\plugins\\iphone.pyc'
p140
F1336578172.0
sS'c:\\marmalade\\6.0\\s3e\\makefile_builder\\plugins\\s3e_vc6.pyc'
p141
F1336578172.0
sS'c:\\marmalade\\6.0\\s3e\\makefile_builder\\plugins\\s3e_make.pyc'
p142
F1336578172.0
sS'c:\\marmalade\\6.0\\s3e\\makefile_builder\\templates\\win32_dsw.pyc'
p143
F1336578172.0
sS'c:\\marmalade\\6.0\\s3e\\makefile_builder\\templates\\xcode4.xcscheme'
p144
F1336522718.0
sS'c:\\marmalade\\6.0\\s3e\\makefile_builder\\templates\\vc10_user.pyc'
p145
F1336578172.0
sS'c:\\marmalade\\6.0\\s3e\\makefile_builder\\plugins\\s3e_qmake.pyc'
p146
F1338820781.2055922
sS'c:\\marmalade\\6.0\\s3e\\makefile_builder\\plugins'
p147
F1338820781.2245934
sS'c:\\marmalade\\6.0\\s3e\\makefile_builder\\mkb_main.pyc'
p148
F1336578172.0
sS'c:\\marmalade\\6.0\\s3e\\makefile_builder\\docs'
p149
F1338820689.1783285
sS'c:\\marmalade\\6.0\\s3e\\makefile_builder\\templates\\xcode_pbxuser.py'
p150
F1336522718.0
sS'c:\\marmalade\\6.0\\s3e\\makefile_builder\\plugins\\VisualStudioEmitter.pyc'
p151
F1336578172.0
sS'c:\\marmalade\\6.0\\s3e\\makefile_builder\\templates\\mips_linker_script'
p152
F1336522718.0
sS'c:\\marmalade\\6.0\\s3e\\makefile_builder\\templates\\qmake.py'
p153
F1336522718.0
sS'c:\\marmalade\\6.0\\s3e\\makefile_builder\\plugins\\vc6_utils.pyc'
p154
F1336578172.0
sS'c:\\marmalade\\6.0\\s3e\\makefile_builder\\plugins\\XcodeEmitter.py'
p155
F1336522716.0
sS'c:\\marmalade\\6.0\\s3e\\makefile_builder\\templates\\linker_script'
p156
F1336522718.0
sS'c:\\marmalade\\6.0\\s3e\\makefile_builder\\templates\\Info.plist'
p157
F1336522718.0
sS'c:\\marmalade\\6.0\\s3e\\makefile_builder\\templates\\gdb_start.txt'
p158
F1336522718.0
sS'c:\\marmalade\\6.0\\s3e\\makefile_builder\\plugins\\xcode4_schememanagement.py'
p159
F1336522718.0
sS'c:\\marmalade\\6.0\\s3e\\makefile_builder\\mkb_launcher.exe'
p160
F1336572250.0
sS'c:\\marmalade\\6.0\\s3e\\makefile_builder\\templates\\scons.pyc'
p161
F1336578172.0
sS'c:\\marmalade\\6.0\\s3e\\makefile_builder\\docs\\options.txt'
p162
F1336522716.0
sS'c:\\marmalade\\6.0\\s3e\\makefile_builder\\templates\\win32_vcxproj_filters.pyc'
p163
F1336578172.0
sS'c:\\marmalade\\6.0\\s3e\\makefile_builder\\docs\\parse_options.pyc'
p164
F1336578172.0
sS'c:\\marmalade\\6.0\\s3e\\makefile_builder\\extensions'
p165
F1338820689.1613276
sS'c:\\marmalade\\6.0\\s3e\\makefile_builder\\templates\\make.py'
p166
F1336522718.0
sS'c:\\marmalade\\6.0\\s3e\\makefile_builder\\plugins\\win32_vc6.pyc'
p167
F1336578172.0
sS'c:\\marmalade\\6.0\\s3e\\makefile_builder\\plugins\\s3e_xcode.py'
p168
F1336522718.0
sS'c:\\marmalade\\6.0\\s3e\\makefile_builder\\plugins\\s3e_scons.pyc'
p169
F1336578172.0
sS'c:\\marmalade\\6.0\\s3e\\makefile_builder\\docs\\deployment_options.txt'
p170
F1336522716.0
sS'c:\\marmalade\\6.0\\s3e\\makefile_builder\\plugins\\vc7_utils.pyc'
p171
F1336578172.0
sS'c:\\marmalade\\6.0\\s3e\\makefile_builder\\plugins\\osx_xcode.pyc'
p172
F1336578172.0
sS'c:\\marmalade\\6.0\\s3e\\makefile_builder\\plugins\\deploy.pyc'
p173
F1336578172.0
sS'c:\\marmalade\\6.0\\s3e\\makefile_builder\\templates\\qmake_user.py'
p174
F1336522718.0
sS'c:\\marmalade\\6.0\\s3e\\makefile_builder\\templates\\vc6_opt.pyc'
p175
F1336578172.0
sS'c:\\marmalade\\6.0\\s3e\\makefile_builder\\plugins\\linux_scons.pyc'
p176
F1336578172.0
sS'c:\\marmalade\\6.0\\s3e\\makefile_builder\\mkb_parser.pyc'
p177
F1336578172.0
sS'c:\\marmalade\\6.0\\s3e\\makefile_builder\\plugins\\java.pyc'
p178
F1336578172.0
sS'c:\\marmalade\\6.0\\s3e\\makefile_builder\\plugins\\s3e_xcode.pyc'
p179
F1338820781.2245934
sS'c:\\marmalade\\6.0\\s3e\\makefile_builder\\plugins\\Emitter.pyc'
p180
F1336578172.0
sS'c:\\marmalade\\6.0\\s3e\\makefile_builder\\templates\\win32_vcxproj.pyc'
p181
F1336578172.0
sS'c:\\marmalade\\6.0\\s3e\\makefile_builder\\templates\\xcode4_DeployTool.xcscheme'
p182
F1336522718.0
sS'c:\\marmalade\\6.0\\s3e\\makefile_builder\\plugins\\xcode4_schememanagement.pyc'
p183
F1338820781.1535892
sS'c:\\marmalade\\6.0\\s3e\\makefile_builder\\docs\\mkb.defines.txt'
p184
F1336522716.0
sS'c:\\marmalade\\6.0\\s3e\\makefile_builder\\templates\\win32_sln.pyc'
p185
F1336578172.0
sS'c:\\marmalade\\6.0\\s3e\\makefile_builder\\tool_launcher.exe'
p186
F1336523832.0
sS'c:\\marmalade\\6.0\\s3e\\makefile_builder\\templates\\xcode.py'
p187
F1336522718.0
sS'c:\\marmalade\\6.0\\s3e\\makefile_builder\\extensions\\make_dist.py'
p188
F1336522716.0
sS'c:\\marmalade\\6.0\\s3e\\makefile_builder\\templates\\win32_vcproj.pyc'
p189
F1336578172.0
sS'c:\\marmalade\\6.0\\s3e\\makefile_builder\\templates\\template.opt'
p190
F1336522718.0
sS'c:\\marmalade\\6.0\\s3e\\makefile_builder\\templates\\MainWindow.xib'
p191
F1336522718.0
sccopy_reg
_reconstructor
p192
(cmkb_main
MkbFile
p193
c__builtin__
object
p194
Ntp195
Rp196
(dp197
g3
(lp198
sS'target_name'
p199
S'c:/marmalade/marmalade-projects/monsterhome/extensions/admobads/lib/win32/AdmobAds.dll'
p200
sS'current_file'
p201
g83
sS'package_path'
p202
(lp203
sS'post_build'
p204
(lp205
sS'librarys'
p206
(lp207
g192
(cmkb_main
Library
p208
g194
Ntp209
Rp210
(dp211
S'name'
p212
S'edk.lib'
p213
sS'expand_name'
p214
I00
sS'include_spec_rvct_objs'
p215
(lp216
sS'include_all_objs'
p217
I00
sS'share_arm'
p218
NsS'arch'
p219
NsS'nodebug'
p220
I00
sg23
NsbasS'library_paths'
p221
(lp222
g192
(cmkb_main
LibraryPath
p223
g194
Ntp224
Rp225
(dp226
S'expand_path'
p227
I00
sS'add_cpu_variant'
p228
I00
sg212
S'c:/marmalade/6.0/s3e/edk/lib/win32'
p229
sbasS'macros'
p230
(dp231
S'IW_TRACE_CHANNEL_ADMOBADS'
p232
S'1'
p233
sS'_DEBUG'
p234
NsS'I3D_PLATFORM_WIN32'
p235
NsS'IW_DEBUG'
p236
NsS'S3E_EXT_ADMOBADS'
p237
NsS'IW_SDK'
p238
NsS'IW_USE_ASSERTIONS'
p239
NsS'IW_ASSERTION_CHANNEL_ADMOBADS'
p240
g233
sS'IW_USE_TRACING'
p241
NsS'WIN32'
p242
NsS'S3E_BUILD_EXT'
p243
NsS'I3D_ARCH_X86'
p244
NsS'I3D_OS_WINDOWS'
p245
NsS'NDEBUG'
p246
NsS'IW_MKF_EDK'
p247
NsS'IW_PLATFORM_WIN32'
p248
NsS'IW_TRACE_CHANNEL_ADMOBADS_VERBOSE'
p249
S'2'
p250
sS'IW_MKF_ADMOBADS_BUILD'
p251
NsS'_WINDOWS'
p252
NssS'done_warnings'
p253
(dp254
sS'subprojects'
p255
(dp256
g111
S'AdmobAds_build'
p257
sg112
S'c:\\marmalade\\6.0/s3e/edk'
p258
ssS'deployments'
p259
(dp260
S'Default'
p261
g192
(cmkb_main
Deployment
p262
g194
Ntp263
Rp264
(dp265
S'got_version'
p266
I0
sS'assets'
p267
g261
sS'mkb'
p268
g196
sS'target'
p269
Nsg219
(lp270
sS'options'
p271
(dp272
S'iphone-link-lib'
p273
(lp274
sS'game-icf'
p275
NsS'iphone-icon-high-res'
p276
NsS'win32-pref-windowposy'
p277
NsS'win32-pref-windowposx'
p278
NsS'bada-appsecret'
p279
NsS'playbook-author'
p280
NsS'winmobile-icon32'
p281
NsS'linux-ext-lib'
p282
(lp283
sS'target-folder'
p284
NsS'iphone-splashscreen-landscape'
p285
NsS'ngi-splashscreen-port'
p286
NsS'psp-discversion'
p287
NsS'lgtv-use-drm'
p288
NsS'nds-bannertitle-sp'
p289
NsS'symbian-platsecflags'
p290
NsS'psp-producer'
p291
NsS'iphone-icon-ipad-search-high-res'
p292
NsS'iphone-provisioning-profile'
p293
NsS'copyright'
p294
NsS'winmobile-png45'
p295
NsS'iphone-link-libdir'
p296
(lp297
sS'symbian-cert'
p298
NsS'nds-bannertitle-hn'
p299
NsS'brew-depends'
p300
NsS'winmobile-png60'
p301
NsS'winmobile-nouninstall'
p302
NsS'brew-mif'
p303
NsS'android-icon-hdpi'
p304
NsS'iphone-ipad-only'
p305
NsS'iphone-splash-full-orient'
p306
NsS'iphone-bundle-url-name'
p307
NsS'android-aliasname'
p308
NsS'iphone-splash-retina-generate'
p309
NsS'psp-dlgmanual'
p310
NsS'iphone-backgroundmode-audio'
p311
NsS'android-pkgname'
p312
NsS'webos-memory'
p313
NsS'brew-uid'
p314
NsS'android-keypass'
p315
NsS'ngi-uid'
p316
NsS'symbian-locationsupport'
p317
NsS'iphone-signing-host'
p318
NsS'ngi-install-sisx-only'
p319
NsS'nds-bannertitle-jp'
p320
NsS'name'
p321
NsS'symbian-run-on-install'
p322
NsS'symbian-icon1-format'
p323
NsS'uiq3-uid'
p324
NsS'psp-dlgcontentid'
p325
NsS'auto-derbh'
p326
NsS'arch'
p327
NsS'bada-use-partner-privileges'
p328
NsS'nds-bannertitle-it'
p329
NsS'playbook-authorid'
p330
NsS'iphone-icon-large'
p331
NsS'ngi-achievements'
p332
NsS'splashscreen'
p333
NsS'symbian-soundrecordsupport'
p334
NsS'symbian-icon2-format'
p335
NsS'long-caption'
p336
NsS'iphone-icon-settings-high-res'
p337
NsS'android-manifest'
p338
NsS'ngi-splash-producer'
p339
NsS'winmobile-icon16'
p340
NsS's3e-compression'
p341
NsS'ngi-game-extras'
p342
NsS'iphone-link-opts'
p343
(lp344
sS'iphone-region'
p345
NsS'uiq3-icon3-mask'
p346
NsS'winmobile-start-menu-folder'
p347
NsS'brew-clsid'
p348
NsS'brew-encoding'
p349
NsS'symbian-icon1'
p350
NsS'symbian-icon2'
p351
NsS'ngi-icon1'
p352
NsS'nds-makercode'
p353
NsS'ngi-icon3'
p354
NsS'ngi-icon2'
p355
NsS'ngi-icon4'
p356
NsS'osx-ext-dll'
p357
(lp358
sS'version'
p359
NsS'bada-manifest'
p360
NsS'provider'
p361
NsS'iphone-prerendered-icon'
p362
NsS'iphone-appid'
p363
NsS'playbook-keystore'
p364
NsS'nds-initialcode'
p365
NsS'ngi-splashscreen-land'
p366
NsS'ngi-key'
p367
NsS'winmobile-icon64'
p368
NsS'iphone-persistent-wifi'
p369
NsS'symbian7-uid'
p370
NsS'winmobile-setup-dll'
p371
NsS'symbian-osexecsupport'
p372
NsS'android-install-location'
p373
NsS'olddeploytoolstyle'
p374
NsS'nds-privatesavedatasize'
p375
NsS'symbian9-uid'
p376
NsS'nds-bannertitle-cn'
p377
NsS'winmobile-trace-file'
p378
NsS'playbook-storepass'
p379
NsS'ngi-no-assets'
p380
NsS'android-icon-ldpi'
p381
NsS'psp-appversion'
p382
NsS'networking'
p383
NsS'winmobile-install-folder'
p384
NsS'ngi-metadata'
p385
NsS'android-external-res'
p386
(lp387
sS'manufacturer'
p388
NsS'android-icon-gallery'
p389
NsS'bada-signed'
p390
NsS'nds-publicsavedatasize'
p391
NsS'iphone-apple-wwdr-cert'
p392
NsS'psp-snd0'
p393
NsS'iphone-extra-sections'
p394
NsS'iphone-nosign'
p395
NsS'caption'
p396
NsS'android-icon'
p397
NsS'android-external-jars'
p398
(lp399
sS'android-storepass'
p400
NsS'iphone-info-plist'
p401
NsS'ngi-arena-config'
p402
NsS'android-extra-manifest'
p403
(lp404
sS'iphone-icon-ipad-search'
p405
NsS'android-custom-activity'
p406
NsS'version-minor'
p407
NsS'iphone-icon-ipad'
p408
NsS'bada-appid'
p409
NsS'iphone-distribution-key'
p410
NsS'iphone-link-libdirs'
p411
(lp412
sS'psp-copyright'
p413
NsS'symbian-maxheapsize'
p414
NsS'embed-icf'
p415
NsS'psp-titlename'
p416
NsS'win-icon'
p417
NsS'symbian-icon1-mask'
p418
NsS'psp-parentallevel'
p419
NsS'priv-sign-key'
p420
NsS'webos-appinfo'
p421
NsS'symbian-cert-key'
p422
NsS'winmobile-ampd-part-number'
p423
NsS'webos-appid'
p424
NsS'android-icon-nonstandard'
p425
NsS'uiq3-icon2'
p426
NsS'iphone-icon-settings'
p427
NsS'ngi-gameinfo'
p428
NsS'iphone-distribution-cert'
p429
NsS'osx-icon'
p430
NsS'symbian-disable-ecompxl'
p431
NsS'splashscreen-auto-onblack'
p432
NsS'icon'
p433
NsS'nds-romheadertemplate'
p434
NsS'webos-icon'
p435
NsS'ngi-arena-rss'
p436
NsS'nds-bannertitle-en'
p437
NsS'win32-ext-dll'
p438
(lp439
sS'psp-dlgicon0'
p440
NsS'iphone-development-key'
p441
NsS'psp-discid'
p442
NsS'winmobile-icon48'
p443
NsS'uiq3-icon1-mask'
p444
NsS'nds-titlename'
p445
NsS'android-so'
p446
(lp447
sS'android-supports-gl-texture'
p448
(lp449
sS'bada-splash'
p450
NsS'version-revision'
p451
NsS'android-icon-mdpi'
p452
NsS'android-keystore'
p453
NsS'uiq3-icon2-format'
p454
NsS'version-string'
p455
NsS'winmobile-png90'
p456
NsS'iphone-icon-ipad-high-res'
p457
NsS'iphone-disable-ipad'
p458
NsS'uiq3-icon1-format'
p459
NsS'iphone-bundle-url-schemes'
p460
NsS'nds-icon'
p461
NsS'ngi-arena-locales'
p462
NsS'iphone-development-cert'
p463
NsS'ngi-filemanager-lib'
p464
NsS'android_extra_strings'
p465
NsS'playbook-icon'
p466
NsS'uid'
p467
NsS'iphone-signing-identity'
p468
NsS'brew-icon-medium'
p469
NsS'android-extra-application-manifest'
p470
(lp471
sS'pkguid-as-uid'
p472
NsS'symbian-icon1-mask-black'
p473
NsS'pub-sign-key'
p474
NsS'nds-bannertitle-fr'
p475
NsS'win32-pref-windowtitle'
p476
NsS'symbian8-uid'
p477
NsS'symbian-icon-svg'
p478
NsS'android-unsigned'
p479
NsS'brew-priviledges'
p480
NsS'ngi-cert'
p481
NsS'brew-icon-small'
p482
NsS'psp-dlgpic2'
p483
NsS'bada-icon'
p484
NsS'psp-dlgpic0'
p485
NsS'ngi-gcce-loader'
p486
NsS'psp-pic0'
p487
NsS'psp-pic1'
p488
NsS'iphone-icon'
p489
NsS'psp-icon0'
p490
NsS'psp-icon1'
p491
NsS'uiq3-icon3-format'
p492
NsS'version-major'
p493
NsS'iphone_bundle_localisations'
p494
NsS'winmobile-icon'
p495
NsS'symbian-keypwd'
p496
NsS'iphone-no-splash'
p497
NsS'playbook-access-shared'
p498
NsS'psp-dlghealthwarning'
p499
NsS'iphone-link-libs'
p500
(lp501
sS'ngi-filemanager-dll'
p502
NsS'iphone-splash'
p503
NsS'nds-bannertitle-ge'
p504
NsS'android_icon_gallery'
p505
NsS'brew-icon-large'
p506
NsS'iphone-app-fonts'
p507
NsS'symbian-icon2-mask'
p508
NsS'iphone-sign-for-distribution'
p509
NsS'psp-dlgprotectdocument'
p510
NsS'winmobile-cab-compress'
p511
NsS'uiq3-icon3'
p512
NsS'uiq3-icon1'
p513
NsS'itunes-artwork'
p514
NsS'win32-icon'
p515
NsS'assets'
p516
NsS'symbian-key'
p517
NsS'app-icf'
p518
NsS'ngi-arena-rsc'
p519
NsS'brew-compress-loader'
p520
NsS'uiq3-icon2-mask'
p521
NsS'symbian-icon2-mask-black'
p522
NsS'android-extra-strings'
p523
NsS'iphone-splashscreen-portrait'
p524
NsS'iphone-bundle-localisations'
p525
Nssg212
g261
sbssS'platform'
p526
S'WIN32'
p527
sg42
S'1.0'
p528
sS'arcade_platform'
p529
g2
sS'extensions'
p530
(dp531
sS'source_groups_tree'
p532
(dp533
S'edk'
p534
(dp535
S'h'
p536
(dp537
S'c:/marmalade/6.0/s3e/edk/h/s3eEdk_windows.h'
p538
(lp539
I1
a(dp540
asS'c:/marmalade/6.0/s3e/edk/h/s3eEdkError.h'
p541
(lp542
I1
ag540
asS'c:/marmalade/6.0/s3e/edk/h/s3eEdk_android.h'
p543
(lp544
I1
ag540
asS'c:/marmalade/6.0/s3e/edk/h/s3eEdk_iphone.h'
p545
(lp546
I1
ag540
asS'c:/marmalade/6.0/s3e/edk/h/s3eEdk.h'
p547
(lp548
I1
ag540
assS'c:/marmalade/6.0/s3e/edk/edk.mkf'
p549
(lp550
I1
a(dp551
asS'S3E API'
p552
(dp553
S'c:/marmalade/6.0/s3e/h/s3eDebug.h'
p554
(lp555
I1
ag540
asS'c:/marmalade/6.0/s3e/h/s3ePointer.h'
p556
(lp557
I1
ag540
asS'c:/marmalade/6.0/s3e/h/s3eSoundRecord.h'
p558
(lp559
I1
ag540
asS'c:/marmalade/6.0/s3e/h/s3eSurface.h'
p560
(lp561
I1
ag540
asS'c:/marmalade/6.0/s3e/h/s3eVersion.h'
p562
(lp563
I1
ag540
asS'c:/marmalade/6.0/s3e/h/s3e.h'
p564
(lp565
I1
ag540
asS'c:/marmalade/6.0/s3e/h/s3eSocket.h'
p566
(lp567
I1
ag540
asS'c:/marmalade/6.0/s3e/h/MarmaladeVersion.h'
p568
(lp569
I1
ag540
asS'c:/marmalade/6.0/s3e/h/s3eExt.h'
p570
(lp571
I1
ag540
asS'c:/marmalade/6.0/s3e/h/s3eHash.h'
p572
(lp573
I1
ag540
asS'c:/marmalade/6.0/s3e/h/s3eDevice.h'
p574
(lp575
I1
ag540
asS'c:/marmalade/6.0/s3e/h/s3eCompass.h'
p576
(lp577
I1
ag540
asS'c:/marmalade/6.0/s3e/h/s3eKeyboard.h'
p578
(lp579
I1
ag540
asS'c:/marmalade/6.0/s3e/h/s3eVideo.h'
p580
(lp581
I1
ag540
asS'c:/marmalade/6.0/s3e/h/s3eThread.h'
p582
(lp583
I1
ag540
asS'c:/marmalade/6.0/s3e/h/s3eMemory.h'
p584
(lp585
I1
ag540
asS'c:/marmalade/6.0/s3e/h/s3eLicense.h'
p586
(lp587
I1
ag540
asS'c:/marmalade/6.0/s3e/h/s3eCrypto.h'
p588
(lp589
I1
ag540
asS'c:/marmalade/6.0/s3e/h/s3eCamera.h'
p590
(lp591
I1
ag540
asS'c:/marmalade/6.0/s3e/h/s3eTypes.h'
p592
(lp593
I1
ag540
asS'c:/marmalade/6.0/s3e/h/AirplayVersion.h'
p594
(lp595
I1
ag540
asS'c:/marmalade/6.0/s3e/h/s3eGL.h'
p596
(lp597
I1
ag540
asS'c:/marmalade/6.0/s3e/h/s3eTimer.h'
p598
(lp599
I1
ag540
asS'c:/marmalade/6.0/s3e/h/s3eSecureStorage.h'
p600
(lp601
I1
ag540
asS'c:/marmalade/6.0/s3e/h/s3eLocation.h'
p602
(lp603
I1
ag540
asS'c:/marmalade/6.0/s3e/h/s3eContacts.h'
p604
(lp605
I1
ag540
asS'c:/marmalade/6.0/s3e/h/s3eAccelerometer.h'
p606
(lp607
I1
ag540
asS'c:/marmalade/6.0/s3e/h/s3eAudio.h'
p608
(lp609
I1
ag540
asS'c:/marmalade/6.0/s3e/h/s3eClipboard.h'
p610
(lp611
I1
ag540
asS'c:/marmalade/6.0/s3e/h/s3eVibra.h'
p612
(lp613
I1
ag540
asS'c:/marmalade/6.0/s3e/h/s3eFile.h'
p614
(lp615
I1
ag540
asS'c:/marmalade/6.0/s3e/h/s3eConfig.h'
p616
(lp617
I1
ag540
asS'c:/marmalade/6.0/s3e/h/s3eCompression.h'
p618
(lp619
I1
ag540
asS'c:/marmalade/6.0/s3e/h/s3eSound.h'
p620
(lp621
I1
ag540
asssS'Extensions'
p622
(dp623
S'AdmobAds'
p624
(dp625
S'c:/marmalade/marmalade-projects/monsterhome/extensions/admobads/AdmobAds.s4e'
p626
(lp627
I1
a(dp628
asS'docs'
p629
(dp630
S'c:/marmalade/marmalade-projects/monsterhome/extensions/admobads/interface/AdmobAds.defines.txt'
p631
(lp632
I1
ag628
assS'c:/marmalade/marmalade-projects/monsterhome/extensions/admobads/admobads_build.mkf'
p633
(lp634
I1
a(dp635
asS'source'
p636
(dp637
S'c:/marmalade/marmalade-projects/monsterhome/extensions/admobads/source/windows/AdmobAds_platform.cpp'
p638
(lp639
I1
ag628
asS'c:/marmalade/marmalade-projects/monsterhome/extensions/admobads/source/generic/AdmobAds_register.cpp'
p640
(lp641
I1
ag628
asS'c:/marmalade/marmalade-projects/monsterhome/extensions/admobads/source/generic/AdmobAds.cpp'
p642
(lp643
I1
ag628
assS'c:/marmalade/6.0/extensions/builder/make_extension.py'
p644
(lp645
I1
a(lp646
asg536
(dp647
S'c:/marmalade/marmalade-projects/monsterhome/extensions/admobads/source/h/AdmobAds_autodefs.h'
p648
(lp649
I1
ag628
asS'c:/marmalade/marmalade-projects/monsterhome/extensions/admobads/source/h/AdmobAds_internal.h'
p650
(lp651
I1
ag628
asssssS'files'
p652
(dp653
S's3eDevice.h'
p654
(g574
(lp655
g534
ag552
ag540
tp656
sS's3eThread.h'
p657
(g582
g655
g540
tp658
sS's3eCompass.h'
p659
(g576
g655
g540
tp660
sS's3eCompression.h'
p661
(g618
g655
g540
tp662
sS's3eEdk_iphone.h'
p663
(g545
(lp664
g534
ag536
ag540
tp665
sS'AirplayVersion.h'
p666
(g594
g655
g540
tp667
sS's3eTimer.h'
p668
(g598
g655
g540
tp669
sS's3e.h'
p670
(g564
g655
g540
tp671
sS's3eSoundRecord.h'
p672
(g558
g655
g540
tp673
sS'admobads_build.mkf'
p674
(g633
(lp675
g622
ag624
ag635
tp676
sS's3eVibra.h'
p677
(g612
g655
g540
tp678
sS's3eExt.h'
p679
(g570
g655
g540
tp680
sS's3eVersion.h'
p681
(g562
g655
g540
tp682
sS'MarmaladeVersion.h'
p683
(g568
g655
g540
tp684
sS's3eSound.h'
p685
(g620
g655
g540
tp686
sS'AdmobAds_autodefs.h'
p687
(g648
(lp688
g622
ag624
ag536
ag628
tp689
sS's3eAudio.h'
p690
(g608
g655
g540
tp691
sS's3eConfig.h'
p692
(g616
g655
g540
tp693
sS's3eEdk_android.h'
p694
(g543
g664
g540
tp695
sS's3eCamera.h'
p696
(g590
g655
g540
tp697
sS's3eTypes.h'
p698
(g592
g655
g540
tp699
sS's3eContacts.h'
p700
(g604
g655
g540
tp701
sS's3eEdk.h'
p702
(g547
g664
g540
tp703
sS's3eSurface.h'
p704
(g560
g655
g540
tp705
sS's3eAccelerometer.h'
p706
(g606
g655
g540
tp707
sS'AdmobAds.defines.txt'
p708
(g631
(lp709
g622
ag624
ag629
ag628
tp710
sS'AdmobAds.s4e'
p711
(g626
(lp712
g622
ag624
ag628
tp713
sS's3eMemory.h'
p714
(g584
g655
g540
tp715
sS's3eCrypto.h'
p716
(g588
g655
g540
tp717
sS's3eKeyboard.h'
p718
(g578
g655
g540
tp719
sS's3eFile.h'
p720
(g614
g655
g540
tp721
sS'AdmobAds_platform.cpp'
p722
(g638
(lp723
g622
ag624
ag636
ag628
tp724
sS's3eEdkError.h'
p725
(g541
g664
g540
tp726
sS'AdmobAds_internal.h'
p727
(g650
g688
g628
tp728
sS's3eSecureStorage.h'
p729
(g600
g655
g540
tp730
sS's3eSocket.h'
p731
(g566
g655
g540
tp732
sS's3eLocation.h'
p733
(g602
g655
g540
tp734
sS'AdmobAds_register.cpp'
p735
(g640
g723
g628
tp736
sS's3eHash.h'
p737
(g572
g655
g540
tp738
sS's3eClipboard.h'
p739
(g610
g655
g540
tp740
sS's3eGL.h'
p741
(g596
g655
g540
tp742
sS'AdmobAds.cpp'
p743
(g642
g723
g628
tp744
sS's3eEdk_windows.h'
p745
(g538
g664
g540
tp746
sS's3eDebug.h'
p747
(g554
g655
g540
tp748
sS'edk.mkf'
p749
(g549
(lp750
g534
ag551
tp751
sS's3eLicense.h'
p752
(g586
g655
g540
tp753
sS's3eVideo.h'
p754
(g580
g655
g540
tp755
sS's3ePointer.h'
p756
(g556
g655
g540
tp757
sS'make_extension.py'
p758
(g644
g675
g646
tp759
ssS'tests'
p760
(lp761
sS'project_name'
p762
S'AdmobAds_windows'
p763
sS'root_file'
p764
g83
sS'current_root'
p765
S'C:/Marmalade/Marmalade-Projects/MonsterHome/extensions/AdmobAds'
p766
sS'dependencies'
p767
(lp768
sS'include_paths'
p769
(lp770
S'c:/marmalade/marmalade-projects/monsterhome/extensions/admobads/source/h'
p771
aS'c:/marmalade/marmalade-projects/monsterhome/extensions/admobads/h'
p772
aS'c:/marmalade/6.0/s3e/edk/h'
p773
aS'c:/marmalade/6.0/s3e/h'
p774
aS'c:/marmalade/6.0/s3e/h/ext'
p775
aS'c:/marmalade/6.0/modules/iwutil/h'
p776
aS'c:/marmalade/6.0/modules/iwcore/h'
p777
asS'weak_frameworks'
p778
(lp779
sS'extprojects'
p780
(dp781
sg267
(dp782
g261
(lp783
ssS'macro_types'
p784
(dp785
g232
I0
sg234
I1
sg235
I0
sg236
I01
sg237
I0
sg238
I0
sg239
I1
sg240
I0
sg241
I1
sg242
I0
sg243
I0
sg244
I0
sg245
I0
sg246
I2
sg247
I0
sg248
I0
sg249
I0
sg251
I0
sg252
I0
ssS'commands'
p786
(lp787
sg269
(g527
S'VC10'
p788
S'X86'
p789
tp790
sS'build_libs'
p791
(dp792
sS'frameworks'
p793
(lp794
sS'environ'
p795
(dp796
sS'target_name_debug'
p797
S'c:/marmalade/marmalade-projects/monsterhome/extensions/admobads/lib/win32/AdmobAds_d.dll'
p798
sS'builders'
p799
(dp800
S'.S'
p801
(dp802
S'rvct'
p803
(lp804
S'.obj'
p805
aS'echo ARM Assembling(RVCT) ${SOURCE}...'
p806
aS'c:/marmalade/6.0/s3e\\rvct\\bin\\armasm -o ${TARGET} ${SOURCE}'
p807
asS'gcc'
p808
(lp809
g805
aS'echo ARM Assembling(GCC) ${SOURCE}...'
p810
aS'c:/marmalade/6.0/s3e\\gcc\\bin\\arm-none-eabi-gcc -c -o ${TARGET} ${SOURCE}'
p811
asS'ppu'
p812
(lp813
S'.a'
p814
aS'echo PPU Assembling(SNC) ${SOURCE}...'
p815
aS'c:/marmalade/6.0/s3e\\rvct\\bin\\armasm -o ${TARGET} ${SOURCE}'
p816
assS'.s'
p817
g802
ssg271
g0
sbtp818
.