(dp0
S'IW_TRACE_CHANNEL_ADMOBADS_VERBOSE'
p1
S'2'
p2
sS'IW_USE_TRACING'
p3
NsS'_WINDOWS'
p4
NsS'_DEBUG'
p5
NsS'I3D_PLATFORM_WIN32'
p6
NsS'NDEBUG'
p7
NsS'IW_SDK'
p8
NsS'IW_USE_ASSERTIONS'
p9
NsS'IW_TRACE_CHANNEL_ADMOBADS'
p10
S'1'
p11
sS'WIN32'
p12
NsS'S3E_BUILD_EXT'
p13
NsS'I3D_ARCH_X86'
p14
NsS'I3D_OS_WINDOWS'
p15
NsS'IW_MKF_ADMOBADS_BUILD'
p16
NsS'IW_MKF_EDK'
p17
NsS'IW_PLATFORM_WIN32'
p18
NsS'IW_DEBUG'
p19
NsS'S3E_EXT_ADMOBADS'
p20
NsS'IW_ASSERTION_CHANNEL_ADMOBADS'
p21
g11
s.