(dp0
S'IW_TRACE_CHANNEL_ADMOBADS_VERBOSE'
p1
S'2'
p2
sS'IW_USE_TRACING'
p3
NsS'IW_MKF_EDK'
p4
NsS'IW_PLATFORM_LINUX'
p5
NsS'IW_DEBUG'
p6
NsS'IW_SDK'
p7
NsS'IW_USE_ASSERTIONS'
p8
NsS'IW_TRACE_CHANNEL_ADMOBADS'
p9
S'1'
p10
sS'S3E_ANDROID'
p11
NsS'S3E_BUILD_EXT'
p12
NsS'ANDROID'
p13
NsS'IW_MKF_ADMOBADS_BUILD'
p14
NsS'I3D_OS_LINUX'
p15
NsS'I3D_PLATFORM_LINUX'
p16
NsS'I3D_ARCH_ARM'
p17
NsS'S3E_EXT_ADMOBADS'
p18
NsS'IW_ASSERTION_CHANNEL_ADMOBADS'
p19
g10
s.